target datalayout = "e-m:e-p270:32:32-p271:32:32-p272:64:64-i64:64-i128:128-f80:128-n8:16:32:64-S128"
target triple = "x86_64-pc-linux-gnu"

%struct.repository = type { ptr, ptr, ptr, ptr, ptr, %struct.strmap, %struct.strmap, %struct.repo_path_cache, ptr, ptr, ptr, ptr, %struct.repo_settings, ptr, ptr, ptr, ptr, ptr, ptr, i32, i32, i32, ptr, ptr, i32, i32, i8 }
%struct.strmap = type { %struct.hashmap, ptr, i8 }
%struct.hashmap = type { ptr, ptr, ptr, i32, i32, i32, i32, i8 }
%struct.repo_path_cache = type { ptr, ptr, ptr, ptr, ptr, ptr, ptr }
%struct.repo_settings = type { i32, i32, i32, i32, i32, i32, i32, i32, i32, i32, i32, i32, ptr, i32, i32, i32, i32, i32, i32, i32, i64, i64, i64 }
%struct.raw_object_store = type { ptr, ptr, ptr, i32, ptr, ptr, i8, %union.pthread_mutex_t, ptr, i8, ptr, ptr, %struct.list_head, %struct.anon, %struct.hashmap, i64, i8 }
%union.pthread_mutex_t = type { %struct.__pthread_mutex_s }
%struct.__pthread_mutex_s = type { i32, i32, i32, i32, i32, i16, i16, %struct.__pthread_internal_list }
%struct.__pthread_internal_list = type { ptr, ptr }
%struct.list_head = type { ptr, ptr }
%struct.anon = type { ptr, i32 }
%struct.object_directory = type { ptr, [8 x i32], ptr, ptr, i32, i32, ptr }

@.str = private unnamed_addr constant [13 x i8] c"repository.c\00", align 1
@.str.1 = private unnamed_addr constant [30 x i8] c"repository hasn't been set up\00", align 1

; Function Attrs: nounwind uwtable
define dso_local ptr @repo_get_object_directory(ptr noundef %0) #0 {
  %2 = alloca ptr, align 8
  store ptr %0, ptr %2, align 8, !tbaa !4
  %3 = load ptr, ptr %2, align 8, !tbaa !4
  %4 = getelementptr inbounds nuw %struct.repository, ptr %3, i32 0, i32 2
  %5 = load ptr, ptr %4, align 8, !tbaa !9
  %6 = getelementptr inbounds nuw %struct.raw_object_store, ptr %5, i32 0, i32 0
  %7 = load ptr, ptr %6, align 8, !tbaa !38
  %8 = icmp ne ptr %7, null
  br i1 %8, label %10, label %9

9:                                                ; preds = %1
  call void (ptr, i32, ptr, ...) @BUG_fl(ptr noundef @.str, i32 noundef 111, ptr noundef @.str.1) #8
  unreachable

10:                                               ; preds = %1
  %11 = load ptr, ptr %2, align 8, !tbaa !4
  %12 = getelementptr inbounds nuw %struct.repository, ptr %11, i32 0, i32 2
  %13 = load ptr, ptr %12, align 8, !tbaa !9
  %14 = getelementptr inbounds nuw %struct.raw_object_store, ptr %13, i32 0, i32 0
  %15 = load ptr, ptr %14, align 8, !tbaa !38
  %16 = getelementptr inbounds nuw %struct.object_directory, ptr %15, i32 0, i32 6
  %17 = load ptr, ptr %16, align 8, !tbaa !51
  ret ptr %17
}